; Function Attrs: nounwind uwtable
define internal range(i32 0, 2) i32 @hf_listen(ptr readnone captures(none) %0) #1 {
  %2 = tail call i32 @test_size_t_lt(ptr noundef nonnull @.str.74, i32 noundef 670, ptr noundef nonnull @.str.93, ptr noundef nonnull @.str.86, i64 noundef 0, i64 noundef 8) #12
  %.not.i = icmp eq i32 %2, 0
  br i1 %.not.i, label %expect_slot_ssl.exit, label %3

3:                                                ; preds = %1
  %4 = tail call ptr @CRYPTO_THREAD_get_local(ptr noundef nonnull @radix_thread) #12
  %5 = getelementptr inbounds nuw i8, ptr %4, i64 104
  %6 = load ptr, ptr %5, align 8, !tbaa !49
  %7 = tail call i32 @test_ptr(ptr noundef nonnull @.str.74, i32 noundef 671, ptr noundef nonnull @.str.94, ptr noundef %6) #12
  %.not3.i = icmp ne i32 %7, 0
  %spec.select.i = zext i1 %.not3.i to i32
  br label %expect_slot_ssl.exit

expect_slot_ssl.exit:                             ; preds = %1, %3
  %.04 = phi ptr [ null, %1 ], [ %6, %3 ]
  %.0.i = phi i32 [ 0, %1 ], [ %spec.select.i, %3 ]
  %8 = tail call i32 @test_true(ptr noundef nonnull @.str.44, i32 noundef 268, ptr noundef nonnull @.str.95, i32 noundef %.0.i) #12
  %.not = icmp eq i32 %8, 0
  br i1 %.not, label %radix_activate_slot.exit, label %9

9:                                                ; preds = %expect_slot_ssl.exit
  %10 = tail call i32 @SSL_listen(ptr noundef %.04) #12
  %11 = icmp ne i32 %10, 0
  %12 = zext i1 %11 to i32
  %13 = tail call i32 @test_true(ptr noundef nonnull @.str.44, i32 noundef 271, ptr noundef nonnull @.str.96, i32 noundef %12) #12
  %.not2 = icmp eq i32 %13, 0
  br i1 %.not2, label %radix_activate_slot.exit, label %14

14:                                               ; preds = %9
  %15 = tail call ptr @SSL_get0_domain(ptr noundef %.04) #12
  %16 = icmp eq ptr %15, null
  br i1 %16, label %17, label %radix_activate_slot.exit

17:                                               ; preds = %14
  %18 = tail call ptr @CRYPTO_THREAD_get_local(ptr noundef nonnull @radix_thread) #12
  %19 = getelementptr inbounds nuw i8, ptr %18, i64 40
  %20 = load ptr, ptr %19, align 8, !tbaa !44
  %.not.i.i = icmp eq ptr %20, null
  br i1 %.not.i.i, label %radix_activate_slot.exit, label %21

21:                                               ; preds = %17
  %22 = getelementptr inbounds nuw i8, ptr %20, i64 16
  %23 = load i8, ptr %22, align 8
  %24 = or i8 %23, 2
  store i8 %24, ptr %22, align 8
  br label %radix_activate_slot.exit

radix_activate_slot.exit:                         ; preds = %21, %17, %14, %9, %expect_slot_ssl.exit
  %.0 = phi i32 [ 0, %9 ], [ 0, %expect_slot_ssl.exit ], [ 1, %14 ], [ 1, %17 ], [ 1, %21 ]
  ret i32 %.0
}